; ModuleID = '30/120.c'
source_filename = "30/120.c"
target datalayout = "e-m:e-p270:32:32-p271:32:32-p272:64:64-i64:64-f80:128-n8:16:32:64-S128"
target triple = "x86_64-pc-linux-gnu"

@.str = private unnamed_addr constant [3 x i8] c"%d\00", align 1
@.str.1 = private unnamed_addr constant [4 x i8] c"\0A%d\00", align 1

; Function Attrs: noinline nounwind uwtable
define dso_local i32 @main() #0 {
  %1 = alloca i32, align 4
  %2 = alloca i32, align 4
  %3 = alloca i32, align 4
  %4 = alloca i32, align 4
  store i32 0, i32* %1, align 4
  store i32 0, i32* %4, align 4
  %5 = call i32 (i8*, ...) @__isoc99_scanf(i8* getelementptr inbounds ([3 x i8], [3 x i8]* @.str, i64 0, i64 0), i32* %3)
  store i32 1, i32* %2, align 4
  br label %6

6:                                                ; preds = %38, %0
  %7 = load i32, i32* %2, align 4
  %8 = load i32, i32* %3, align 4
  %9 = icmp sle i32 %7, %8
  br i1 %9, label %10, label %41

10:                                               ; preds = %6
  %11 = load i32, i32* %2, align 4
  %12 = sub nsw i32 %11, 7
  %13 = srem i32 %12, 10
  %14 = icmp eq i32 %13, 0
  br i1 %14, label %15, label %17

15:                                               ; preds = %10
  %16 = load i32, i32* %4, align 4
  store i32 %16, i32* %4, align 4
  br label %37

17:                                               ; preds = %10
  %18 = load i32, i32* %2, align 4
  %19 = sdiv i32 %18, 10
  %20 = icmp eq i32 %19, 7
  br i1 %20, label %21, label %23

21:                                               ; preds = %17
  %22 = load i32, i32* %4, align 4
  store i32 %22, i32* %4, align 4
  br label %36

23:                                               ; preds = %17
  %24 = load i32, i32* %2, align 4
  %25 = srem i32 %24, 7
  %26 = icmp eq i32 %25, 0
  br i1 %26, label %27, label %29

27:                                               ; preds = %23
  %28 = load i32, i32* %4, align 4
  store i32 %28, i32* %4, align 4
  br label %35

29:                                               ; preds = %23
  %30 = load i32, i32* %2, align 4
  %31 = load i32, i32* %2, align 4
  %32 = mul nsw i32 %30, %31
  %33 = load i32, i32* %4, align 4
  %34 = add nsw i32 %33, %32
  store i32 %34, i32* %4, align 4
  br label %35

35:                                               ; preds = %29, %27
  br label %36

36:                                               ; preds = %35, %21
  br label %37

37:                                               ; preds = %36, %15
  br label %38

38:                                               ; preds = %37
  %39 = load i32, i32* %2, align 4
  %40 = add nsw i32 %39, 1
  store i32 %40, i32* %2, align 4
  br label %6

41:                                               ; preds = %6
  %42 = load i32, i32* %4, align 4
  %43 = call i32 (i8*, ...) @printf(i8* getelementptr inbounds ([4 x i8], [4 x i8]* @.str.1, i64 0, i64 0), i32 %42)
  ret i32 0
}

declare dso_local i32 @__isoc99_scanf(i8*, ...) #1

declare dso_local i32 @printf(i8*, ...) #1


!llvm.module.flags = !{!0}
!llvm.ident = !{!1}

!0 = !{i32 1, !"wchar_size", i32 4}
!1 = !{!"clang version 10.0.0-4ubuntu1 "}
